target datalayout = "e-m:e-p270:32:32-p271:32:32-p272:64:64-i64:64-i128:128-f80:128-n8:16:32:64-S128"
target triple = "x86_64-pc-linux-gnu"

%struct.latencyTimeSeries = type { i32, i32, [160 x %struct.latencySample] }
%struct.latencySample = type { i32, i32 }

; Function Attrs: nounwind uwtable
define dso_local void @latencyCommandReplyWithSamples(ptr noundef %0, ptr noundef %1) #0 {
  %3 = alloca ptr, align 8
  %4 = alloca ptr, align 8
  %5 = alloca ptr, align 8
  %6 = alloca i32, align 4
  %7 = alloca i32, align 4
  %8 = alloca i32, align 4
  %9 = alloca i32, align 4
  store ptr %0, ptr %3, align 8, !tbaa !77
  store ptr %1, ptr %4, align 8, !tbaa !42
  call void @llvm.lifetime.start.p0(i64 8, ptr %5) #10
  %10 = load ptr, ptr %3, align 8, !tbaa !77
  %11 = call ptr @addReplyDeferredLen(ptr noundef %10)
  store ptr %11, ptr %5, align 8, !tbaa !10
  call void @llvm.lifetime.start.p0(i64 4, ptr %6) #10
  store i32 0, ptr %6, align 4, !tbaa !48
  call void @llvm.lifetime.start.p0(i64 4, ptr %7) #10
  store i32 0, ptr %7, align 4, !tbaa !48
  br label %12

12:                                               ; preds = %56, %2
  %13 = load i32, ptr %7, align 4, !tbaa !48
  %14 = icmp slt i32 %13, 160
  br i1 %14, label %15, label %59

15:                                               ; preds = %12
  call void @llvm.lifetime.start.p0(i64 4, ptr %8) #10
  %16 = load ptr, ptr %4, align 8, !tbaa !42
  %17 = getelementptr inbounds nuw %struct.latencyTimeSeries, ptr %16, i32 0, i32 0
  %18 = load i32, ptr %17, align 4, !tbaa !45
  %19 = load i32, ptr %7, align 4, !tbaa !48
  %20 = add nsw i32 %18, %19
  %21 = srem i32 %20, 160
  store i32 %21, ptr %8, align 4, !tbaa !48
  %22 = load ptr, ptr %4, align 8, !tbaa !42
  %23 = getelementptr inbounds nuw %struct.latencyTimeSeries, ptr %22, i32 0, i32 2
  %24 = load i32, ptr %8, align 4, !tbaa !48
  %25 = sext i32 %24 to i64
  %26 = getelementptr inbounds [160 x %struct.latencySample], ptr %23, i64 0, i64 %25
  %27 = getelementptr inbounds nuw %struct.latencySample, ptr %26, i32 0, i32 0
  %28 = load i32, ptr %27, align 4, !tbaa !49
  %29 = icmp eq i32 %28, 0
  br i1 %29, label %30, label %31

30:                                               ; preds = %15
  store i32 4, ptr %9, align 4
  br label %53

31:                                               ; preds = %15
  %32 = load ptr, ptr %3, align 8, !tbaa !77
  call void @addReplyArrayLen(ptr noundef %32, i64 noundef 2)
  %33 = load ptr, ptr %3, align 8, !tbaa !77
  %34 = load ptr, ptr %4, align 8, !tbaa !42
  %35 = getelementptr inbounds nuw %struct.latencyTimeSeries, ptr %34, i32 0, i32 2
  %36 = load i32, ptr %8, align 4, !tbaa !48
  %37 = sext i32 %36 to i64
  %38 = getelementptr inbounds [160 x %struct.latencySample], ptr %35, i64 0, i64 %37
  %39 = getelementptr inbounds nuw %struct.latencySample, ptr %38, i32 0, i32 0
  %40 = load i32, ptr %39, align 4, !tbaa !49
  %41 = sext i32 %40 to i64
  call void @addReplyLongLong(ptr noundef %33, i64 noundef %41)
  %42 = load ptr, ptr %3, align 8, !tbaa !77
  %43 = load ptr, ptr %4, align 8, !tbaa !42
  %44 = getelementptr inbounds nuw %struct.latencyTimeSeries, ptr %43, i32 0, i32 2
  %45 = load i32, ptr %8, align 4, !tbaa !48
  %46 = sext i32 %45 to i64
  %47 = getelementptr inbounds [160 x %struct.latencySample], ptr %44, i64 0, i64 %46
  %48 = getelementptr inbounds nuw %struct.latencySample, ptr %47, i32 0, i32 1
  %49 = load i32, ptr %48, align 4, !tbaa !51
  %50 = zext i32 %49 to i64
  call void @addReplyLongLong(ptr noundef %42, i64 noundef %50)
  %51 = load i32, ptr %6, align 4, !tbaa !48
  %52 = add nsw i32 %51, 1
  store i32 %52, ptr %6, align 4, !tbaa !48
  store i32 0, ptr %9, align 4
  br label %53

53:                                               ; preds = %31, %30
  call void @llvm.lifetime.end.p0(i64 4, ptr %8) #10
  %54 = load i32, ptr %9, align 4
  switch i32 %54, label %64 [
    i32 0, label %55
    i32 4, label %56
  ]

55:                                               ; preds = %53
  br label %56

56:                                               ; preds = %55, %53
  %57 = load i32, ptr %7, align 4, !tbaa !48
  %58 = add nsw i32 %57, 1
  store i32 %58, ptr %7, align 4, !tbaa !48
  br label %12, !llvm.loop !118

59:                                               ; preds = %12
  %60 = load ptr, ptr %3, align 8, !tbaa !77
  %61 = load ptr, ptr %5, align 8, !tbaa !10
  %62 = load i32, ptr %6, align 4, !tbaa !48
  %63 = sext i32 %62 to i64
  call void @setDeferredArrayLen(ptr noundef %60, ptr noundef %61, i64 noundef %63)
  call void @llvm.lifetime.end.p0(i64 4, ptr %7) #10
  call void @llvm.lifetime.end.p0(i64 4, ptr %6) #10
  call void @llvm.lifetime.end.p0(i64 8, ptr %5) #10
  ret void

64:                                               ; preds = %53
  unreachable
}