; Function Attrs: nounwind uwtable
define dso_local void @latencyCommandReplyWithSamples(ptr noundef %0, ptr noundef readonly captures(none) %1) local_unnamed_addr #2 {
  %3 = tail call ptr @addReplyDeferredLen(ptr noundef %0) #14
  %4 = getelementptr inbounds nuw i8, ptr %1, i64 8
  br label %5

5:                                                ; preds = %2, %20
  %.019 = phi i32 [ 0, %2 ], [ %.1, %20 ]
  %.01718 = phi i32 [ 0, %2 ], [ %21, %20 ]
  %6 = load i32, ptr %1, align 4, !tbaa !40
  %7 = add nsw i32 %6, %.01718
  %8 = srem i32 %7, 160
  %9 = sext i32 %8 to i64
  %10 = getelementptr inbounds [160 x %struct.latencySample], ptr %4, i64 0, i64 %9
  %11 = load i32, ptr %10, align 4, !tbaa !41
  %12 = icmp eq i32 %11, 0
  br i1 %12, label %20, label %13

13:                                               ; preds = %5
  tail call void @addReplyArrayLen(ptr noundef %0, i64 noundef 2) #14
  %14 = load i32, ptr %10, align 4, !tbaa !41
  %15 = sext i32 %14 to i64
  tail call void @addReplyLongLong(ptr noundef %0, i64 noundef %15) #14
  %16 = getelementptr inbounds nuw i8, ptr %10, i64 4
  %17 = load i32, ptr %16, align 4, !tbaa !43
  %18 = zext i32 %17 to i64
  tail call void @addReplyLongLong(ptr noundef %0, i64 noundef %18) #14
  %19 = add nsw i32 %.019, 1
  br label %20

20:                                               ; preds = %5, %13
  %.1 = phi i32 [ %19, %13 ], [ %.019, %5 ]
  %21 = add nuw nsw i32 %.01718, 1
  %exitcond.not = icmp eq i32 %21, 160
  br i1 %exitcond.not, label %22, label %5, !llvm.loop !99

22:                                               ; preds = %20
  %23 = sext i32 %.1 to i64
  tail call void @setDeferredArrayLen(ptr noundef %0, ptr noundef %3, i64 noundef %23) #14
  ret void
}